Certificate:
    Data:
        Version: 3 (0x2)
        Serial Number: 2 (0x2)
    Signature Algorithm: sha1WithRSAEncryption
        Issuer: C=DE, ST=Berlin, L=Berlin, O=Deutsche Kinemathek, Museum fuer Film und Fernsehen, OU=kmt-it, CN=kmt - ldap-pki/emailAddress=admin@deutsche-kinemathek.de
        Validity
            Not Before: Mar 25 12:25:42 2014 GMT
            Not After : Mar 22 12:25:42 2024 GMT
        Subject: C=DE, ST=Berlin, O=Deutsche Kinemathek, Museum fuer Film und Fernsehen, OU=kmt-it, CN=swank.ad.kinemathek.de/emailAddress=admin@deutsche-kinemathek.de
        Subject Public Key Info:
            Public Key Algorithm: rsaEncryption
                Public-Key: (4096 bit)
                Modulus:
                    00:c0:b7:64:e5:d6:df:01:9e:c6:e5:0b:3a:7d:c9:
                    e3:31:ee:1a:ce:a3:52:fd:5d:a4:01:98:de:65:58:
                    e4:13:f3:1d:ee:fc:a3:df:0b:8a:bb:a3:12:ca:c6:
                    40:1d:b0:22:7a:f9:97:ad:1b:dc:b7:62:a5:4d:a1:
                    19:a0:0f:e2:10:fb:bd:16:38:51:c4:b2:a9:51:72:
                    70:e6:f9:06:1b:e6:ca:d8:e9:26:42:04:ac:49:c8:
                    89:ea:80:3b:e5:d5:33:be:65:fb:41:3f:8f:f0:3f:
                    d5:b3:1c:27:a2:74:0d:db:26:55:ca:ac:ed:bd:df:
                    5f:ea:3c:49:69:44:12:19:c6:81:93:64:d5:d8:d8:
                    8d:d9:d7:55:cc:f7:cc:02:1a:de:9a:40:9e:c9:ed:
                    aa:a6:7c:53:eb:41:b1:15:22:db:0c:8a:2b:43:22:
                    7f:13:76:83:02:1e:98:f3:c4:2c:df:e3:70:0c:4f:
                    fd:e8:5d:6d:b3:ee:34:a4:8c:e8:9b:ca:d7:9e:b3:
                    f1:8c:67:4f:e1:ab:00:77:02:1a:f1:68:29:d5:9e:
                    67:a6:13:cc:05:b5:09:4e:0a:30:f1:49:7e:35:4a:
                    f2:bc:34:b3:fc:1f:d5:00:80:5a:ed:35:74:04:79:
                    fd:a6:27:63:e7:c4:86:0a:44:bd:63:63:f9:95:40:
                    72:8e:35:72:0b:fb:e9:f3:f1:f9:d5:8a:68:94:7b:
                    04:82:69:c7:c4:8a:35:fe:eb:fb:07:f0:31:1d:6c:
                    7e:1b:8d:1b:b3:76:e7:f5:3b:82:27:1b:f6:49:f1:
                    86:9d:dd:19:db:2a:64:dc:8f:4e:f8:fc:b2:1a:66:
                    6f:4e:51:82:d3:8c:b9:5f:00:2f:bc:c2:c5:70:ff:
                    f5:7b:44:3c:3a:38:80:a4:23:55:5f:90:4d:ab:0d:
                    b3:99:5d:8c:ee:5c:90:43:5b:f9:2d:1b:30:f4:38:
                    bf:9e:c4:64:a7:56:2c:c3:c4:3f:d8:b8:fb:69:00:
                    0d:f1:b4:1b:05:04:2d:a0:b6:32:44:e2:71:7c:a8:
                    2d:ce:a5:e3:b3:ad:43:d3:e3:84:bc:c3:40:17:c0:
                    22:ce:f0:a9:48:eb:d0:a2:9a:44:dc:fd:b4:01:39:
                    cc:9a:db:c4:88:fa:63:9d:37:85:4a:b1:12:fa:3c:
                    58:e4:1e:07:f3:4d:44:28:be:7a:19:20:d4:58:91:
                    29:e5:ef:22:f7:fa:01:34:74:41:0b:13:e8:32:b4:
                    eb:50:c1:f6:40:b5:4b:6a:76:2d:7e:b2:68:71:ec:
                    36:55:9b:d5:5d:86:2a:a8:66:fd:e4:2b:25:3d:c6:
                    74:3a:de:7b:b6:8a:a9:85:56:93:f2:ed:ca:a0:c6:
                    51:d1:0f
                Exponent: 65537 (0x10001)
        X509v3 extensions:
            X509v3 Basic Constraints: 
                CA:FALSE
            Netscape Comment: 
                OpenSSL Generated Certificate
            X509v3 Subject Key Identifier: 
                61:4A:65:34:CD:1C:A9:61:31:8D:14:E3:EE:9F:AC:EA:85:2E:2B:06
            X509v3 Authority Key Identifier: 
                keyid:84:26:70:35:AE:BC:E9:29:7A:C7:C1:A6:CD:69:39:62:E0:C7:66:1F

    Signature Algorithm: sha1WithRSAEncryption
         43:41:c8:2c:ab:4e:f3:52:5b:6d:99:00:38:f0:d6:e7:97:9b:
         d6:ed:12:b7:60:6f:4d:91:60:3f:c1:dc:d7:83:28:01:24:a1:
         4b:14:73:96:61:e8:e8:7f:2e:ba:a1:cd:ec:cb:c6:e4:ce:ef:
         d3:37:8a:e4:b8:eb:6d:d0:a8:b4:b7:3b:ec:7a:80:9f:ce:b9:
         3f:e8:85:bb:e5:c0:92:e8:77:6b:d5:8d:38:31:88:6b:90:33:
         fa:d6:0f:1c:f8:89:21:63:a3:87:eb:ea:41:30:ff:b7:53:90:
         d6:46:35:e4:97:ff:3d:25:1b:d0:ef:83:d9:af:f0:a3:e2:8e:
         e6:7e:74:70:ea:3d:d1:3f:fc:bd:ea:c6:11:21:c1:04:80:32:
         b7:13:32:dc:ff:48:4c:6f:ce:cc:56:69:70:f4:d2:e4:ad:57:
         47:8e:3e:96:df:62:54:ec:e5:29:c7:57:bb:2a:0c:f2:3b:96:
         c1:97:89:6b:44:f0:86:bb:ea:66:d0:b6:d8:10:ec:49:4a:4d:
         f9:47:19:96:78:05:39:92:e9:12:4e:fb:f4:93:0b:8c:c9:e5:
         52:af:7f:8d:c4:f6:0c:0e:d5:1c:d5:7a:1d:76:07:93:f8:82:
         09:63:2c:78:d6:bd:5c:00:eb:0c:eb:a1:ee:cb:dd:ae:e1:a5:
         36:28:0b:e2:65:a6:5a:73:8c:33:e5:af:18:10:13:4d:8e:a9:
         8e:7a:d4:fe:74:e9:ad:e4:27:49:35:59:90:a1:9d:df:8f:09:
         5f:96:44:ed:25:a0:ad:8f:9d:50:a9:17:47:3c:57:f2:e3:b2:
         3b:fe:f9:33:9d:d3:e1:cf:a1:42:33:f8:7f:ab:c9:dc:e5:03:
         ae:5a:65:7a:4e:71:7a:23:9c:aa:03:8d:75:fc:e2:ed:09:cd:
         bd:b4:18:9f:4d:c4:d2:ec:1c:db:5b:bc:73:82:66:37:49:d0:
         df:d5:df:e3:31:35:1c:b5:e6:c1:f8:60:0b:24:e9:13:6f:64:
         88:97:3f:3c:4e:07:c8:af:9c:6c:ba:63:64:cb:85:9a:b0:5e:
         f2:2d:bd:9c:f7:d7:0e:22:97:e1:cd:92:91:0c:4f:db:26:ac:
         86:87:99:82:4a:c5:eb:32:ca:75:fb:71:58:ed:4a:3f:e2:e1:
         f7:9e:cb:98:36:81:79:6d:76:b2:34:8d:01:75:7b:67:84:aa:
         bb:47:86:16:49:09:ee:34:2d:35:59:82:54:d4:99:e0:51:6f:
         56:f4:a2:44:a4:b9:79:6a:ae:58:f9:c4:3b:42:33:60:7d:5d:
         19:e6:a7:4e:f5:fc:ff:34:e9:43:47:57:b6:3c:06:0b:16:a6:
         9a:48:74:26:bb:e7:28:e3
-----BEGIN CERTIFICATE-----
MIIGdzCCBF+gAwIBAgIBAjANBgkqhkiG9w0BAQUFADCBxDELMAkGA1UEBhMCREUx
DzANBgNVBAgMBkJlcmxpbjEPMA0GA1UEBwwGQmVybGluMTwwOgYDVQQKDDNEZXV0
c2NoZSBLaW5lbWF0aGVrLCBNdXNldW0gZnVlciBGaWxtIHVuZCBGZXJuc2VoZW4x
DzANBgNVBAsMBmttdC1pdDEXMBUGA1UEAwwOa210IC0gbGRhcC1wa2kxKzApBgkq
hkiG9w0BCQEWHGFkbWluQGRldXRzY2hlLWtpbmVtYXRoZWsuZGUwHhcNMTQwMzI1
MTIyNTQyWhcNMjQwMzIyMTIyNTQyWjCBuzELMAkGA1UEBhMCREUxDzANBgNVBAgM
BkJlcmxpbjE8MDoGA1UECgwzRGV1dHNjaGUgS2luZW1hdGhlaywgTXVzZXVtIGZ1
ZXIgRmlsbSB1bmQgRmVybnNlaGVuMQ8wDQYDVQQLDAZrbXQtaXQxHzAdBgNVBAMM
FnN3YW5rLmFkLmtpbmVtYXRoZWsuZGUxKzApBgkqhkiG9w0BCQEWHGFkbWluQGRl
dXRzY2hlLWtpbmVtYXRoZWsuZGUwggIiMA0GCSqGSIb3DQEBAQUAA4ICDwAwggIK
AoICAQDAt2Tl1t8BnsblCzp9yeMx7hrOo1L9XaQBmN5lWOQT8x3u/KPfC4q7oxLK
xkAdsCJ6+ZetG9y3YqVNoRmgD+IQ+70WOFHEsqlRcnDm+QYb5srY6SZCBKxJyInq
gDvl1TO+ZftBP4/wP9WzHCeidA3bJlXKrO2931/qPElpRBIZxoGTZNXY2I3Z11XM
98wCGt6aQJ7J7aqmfFPrQbEVItsMiitDIn8TdoMCHpjzxCzf43AMT/3oXW2z7jSk
jOibytees/GMZ0/hqwB3AhrxaCnVnmemE8wFtQlOCjDxSX41SvK8NLP8H9UAgFrt
NXQEef2mJ2PnxIYKRL1jY/mVQHKONXIL++nz8fnVimiUewSCacfEijX+6/sH8DEd
bH4bjRuzduf1O4InG/ZJ8Yad3RnbKmTcj074/LIaZm9OUYLTjLlfAC+8wsVw//V7
RDw6OICkI1VfkE2rDbOZXYzuXJBDW/ktGzD0OL+exGSnVizDxD/YuPtpAA3xtBsF
BC2gtjJE4nF8qC3OpeOzrUPT44S8w0AXwCLO8KlI69CimkTc/bQBOcya28SI+mOd
N4VKsRL6PFjkHgfzTUQovnoZINRYkSnl7yL3+gE0dEELE+gytOtQwfZAtUtqdi1+
smhx7DZVm9VdhiqoZv3kKyU9xnQ63nu2iqmFVpPy7cqgxlHRDwIDAQABo3sweTAJ
BgNVHRMEAjAAMCwGCWCGSAGG+EIBDQQfFh1PcGVuU1NMIEdlbmVyYXRlZCBDZXJ0
aWZpY2F0ZTAdBgNVHQ4EFgQUYUplNM0cqWExjRTj7p+s6oUuKwYwHwYDVR0jBBgw
FoAUhCZwNa686Sl6x8GmzWk5YuDHZh8wDQYJKoZIhvcNAQEFBQADggIBAENByCyr
TvNSW22ZADjw1ueXm9btErdgb02RYD/B3NeDKAEkoUsUc5Zh6Oh/LrqhzezLxuTO
79M3iuS4623QqLS3O+x6gJ/OuT/ohbvlwJLod2vVjTgxiGuQM/rWDxz4iSFjo4fr
6kEw/7dTkNZGNeSX/z0lG9Dvg9mv8KPijuZ+dHDqPdE//L3qxhEhwQSAMrcTMtz/
SExvzsxWaXD00uStV0eOPpbfYlTs5SnHV7sqDPI7lsGXiWtE8Ia76mbQttgQ7ElK
TflHGZZ4BTmS6RJO+/STC4zJ5VKvf43E9gwO1RzVeh12B5P4ggljLHjWvVwA6wzr
oe7L3a7hpTYoC+JlplpzjDPlrxgQE02OqY561P506a3kJ0k1WZChnd+PCV+WRO0l
oK2PnVCpF0c8V/Ljsjv++TOd0+HPoUIz+H+rydzlA65aZXpOcXojnKoDjXX84u0J
zb20GJ9NxNLsHNtbvHOCZjdJ0N/V3+MxNRy15sH4YAsk6RNvZIiXPzxOB8ivnGy6
Y2TLhZqwXvItvZz31w4il+HNkpEMT9smrIaHmYJKxesyynX7cVjtSj/i4feey5g2
gXltdrI0jQF1e2eEqrtHhhZJCe40LTVZglTUmeBRb1b0okSkuXlqrlj5xDtCM2B9
XRnmp071/P806UNHV7Y8BgsWpppIdCa75yjj
-----END CERTIFICATE-----
