Certificate:
    Data:
        Version: 3 (0x2)
        Serial Number: 0 (0x0)
    Signature Algorithm: sha1WithRSAEncryption
        Issuer: C=DE, ST=Berlin, L=Berlin, O=Deutsche Kinemathek, Museum fuer Film und Fernsehen, OU=kmt-it, CN=kmt - ldap-pki/emailAddress=admin@deutsche-kinemathek.de
        Validity
            Not Before: Mar 18 18:40:08 2014 GMT
            Not After : Mar 15 18:40:08 2024 GMT
        Subject: C=DE, ST=Berlin, O=Deutsche Kinemathek, Museum fuer Film und Fernsehen, OU=kmt-it, CN=sarandon.ad.kinemathek.de/emailAddress=admin@deutsche-kinemathek.de
        Subject Public Key Info:
            Public Key Algorithm: rsaEncryption
                Public-Key: (4096 bit)
                Modulus:
                    00:b7:60:45:8c:94:94:23:d2:fe:ba:2b:89:23:f0:
                    6d:5e:ac:c8:a7:90:3d:35:ef:0c:53:25:7c:a0:a7:
                    bb:b9:dd:7f:4e:a2:c8:86:b1:11:ee:8e:e7:fd:d6:
                    62:7b:cc:51:7e:c1:c4:ae:af:50:37:a7:c0:00:b0:
                    3a:35:84:c0:8f:e0:88:34:95:48:43:b4:ab:31:ca:
                    b8:2f:48:29:83:8e:b4:8e:e2:f4:24:96:b6:72:b7:
                    f1:bb:d2:59:71:fb:a3:8f:c7:d4:ad:19:82:98:c6:
                    b6:96:9f:18:05:97:51:a5:30:01:11:8e:64:3c:45:
                    78:48:c3:d6:2d:3a:ce:5e:90:93:c6:67:f8:f5:b9:
                    7b:67:66:d4:c1:54:be:6e:41:4c:7f:f3:55:bc:43:
                    f0:b2:55:d3:4e:bb:f6:fd:2f:5d:cc:36:a5:90:e8:
                    c3:cf:0f:59:ff:30:fe:7e:7b:4d:53:4c:7f:22:7d:
                    42:e3:62:6d:83:4b:20:88:81:a4:95:9f:10:7b:e3:
                    4e:65:8f:ed:e8:9d:bb:db:96:38:29:a1:30:38:e3:
                    91:d6:2a:6a:e8:e2:86:a5:41:f5:8e:c3:18:6f:e6:
                    f9:7a:06:9c:6b:29:05:71:de:12:fd:ad:da:e5:76:
                    2a:67:55:fd:50:f7:8f:4d:56:34:0b:20:27:e8:55:
                    12:dd:43:12:5c:7b:1f:8a:7b:3f:25:f9:bf:1f:56:
                    a4:44:f1:48:7d:da:a5:45:5f:78:61:62:1a:3f:b0:
                    47:b2:41:61:98:d0:b5:48:18:b1:8c:5c:a7:3d:da:
                    83:0c:e2:63:1a:dd:3c:06:4e:38:95:75:6f:31:68:
                    9b:ff:b6:55:ba:51:43:69:23:24:0f:5a:b4:fa:76:
                    60:75:2f:7a:a8:d8:2d:45:ed:7c:bf:19:5d:87:cd:
                    ee:35:06:c4:51:27:ae:c4:cd:d2:6d:ed:80:28:98:
                    88:43:cd:8c:7e:6a:b4:89:0e:eb:2d:e8:47:b2:7c:
                    54:97:14:f2:53:f5:cb:a2:ee:37:2d:4a:a0:e9:4b:
                    9e:47:55:60:88:64:07:59:4f:26:ee:d8:bb:bb:74:
                    9d:65:db:1e:a2:38:06:32:23:98:59:36:63:1e:d5:
                    c9:1e:0a:f0:c5:2d:bb:90:c9:38:22:f3:e3:f7:17:
                    1f:d0:55:de:03:5f:d1:87:b0:15:b2:bf:d2:39:d8:
                    a2:56:0d:c7:25:79:c9:04:6c:6f:ca:c1:ea:5e:7c:
                    ff:42:38:e4:1d:ad:23:78:59:41:36:e2:99:3a:2f:
                    95:b6:98:a5:01:b6:23:9f:28:8b:88:c2:16:d0:a5:
                    9b:78:84:3d:97:e3:d7:33:fc:c0:df:19:2f:16:d0:
                    01:0e:c5
                Exponent: 65537 (0x10001)
        X509v3 extensions:
            X509v3 Basic Constraints: 
                CA:FALSE
            Netscape Comment: 
                OpenSSL Generated Certificate
            X509v3 Subject Key Identifier: 
                FE:94:52:E3:F4:AD:8D:0F:7A:D2:1B:7A:E8:49:63:37:39:70:DA:46
            X509v3 Authority Key Identifier: 
                keyid:84:26:70:35:AE:BC:E9:29:7A:C7:C1:A6:CD:69:39:62:E0:C7:66:1F

    Signature Algorithm: sha1WithRSAEncryption
         ac:9e:b0:08:4f:be:83:d3:ac:0c:02:8f:98:3a:cc:4c:1d:db:
         b0:4b:66:0c:a9:c1:36:18:f6:7f:10:86:35:95:a9:2a:7d:10:
         c5:11:e8:ec:82:a2:43:25:4b:49:59:2c:a3:fa:53:0f:ca:c1:
         75:bb:23:ca:84:ef:49:ab:36:46:39:b2:0a:d3:ba:71:62:1d:
         6d:25:fc:b8:e8:53:e8:48:a8:e2:0e:af:a8:d3:a7:23:57:87:
         3e:5f:95:c0:8e:c1:c5:ff:c9:c4:14:49:2f:b9:2b:d1:f5:9b:
         7b:87:07:3a:2a:37:8c:45:7c:8e:32:67:37:f2:e7:07:54:da:
         bd:72:a1:73:e2:08:4d:de:66:1b:46:a7:77:df:a5:90:ce:cc:
         fc:37:fd:70:7b:bb:aa:2e:93:9a:81:28:99:61:bf:f7:60:45:
         f1:11:f5:f1:b5:75:2f:86:91:4d:87:83:22:8a:34:c9:5a:d9:
         f9:02:81:99:94:7b:9d:ae:66:8c:cb:c0:08:e6:2b:27:3e:fc:
         d7:ca:21:ca:ec:dd:a8:51:4f:c5:e1:dd:f8:ee:52:30:da:20:
         c7:99:3f:cb:c8:c0:6a:b2:b9:42:f7:14:5a:c3:27:14:19:30:
         d5:2d:4b:d3:74:1b:17:c7:da:b5:76:53:b6:30:9b:84:20:5a:
         1d:0d:8a:77:69:0a:f1:52:a5:a3:6a:c6:9e:f7:cb:94:c8:4c:
         3b:b2:3c:ef:3c:f8:79:c6:8d:52:11:a4:f2:2f:4e:7b:26:b4:
         1b:55:0a:04:63:b8:b7:b9:21:a6:48:15:d5:6f:e0:6e:62:8d:
         2d:49:ff:4e:c7:b2:c9:fd:a7:36:b3:37:3c:b1:48:c4:ec:67:
         8c:27:98:dc:ac:fb:3e:6d:dd:52:e0:c9:53:e0:ce:e2:d4:ad:
         2a:6a:6f:d6:ff:e2:0e:03:12:ec:8f:70:2e:8a:86:b9:83:33:
         ec:98:5c:de:81:c8:d2:cc:b6:91:22:29:96:ae:fd:7e:eb:61:
         e8:33:50:30:53:05:a1:b4:0f:ab:3d:d5:2e:27:a2:b8:4a:98:
         20:56:43:bc:53:fe:ac:93:65:1d:64:c7:70:85:e7:6f:e4:65:
         b1:e5:1f:98:7d:86:43:94:24:59:1d:ca:86:c6:e7:27:e8:1c:
         88:e0:c2:9e:c5:71:7f:05:a4:f3:e0:e0:87:b7:e2:6d:19:0a:
         7b:94:45:db:ca:13:4e:6e:08:25:74:1a:17:30:ae:72:4d:3d:
         b0:24:c6:71:dc:94:1e:a2:9a:fe:b0:93:a3:b7:5c:ce:53:9a:
         16:83:1c:ab:e7:92:3b:e3:c3:e1:e1:b2:79:35:75:c1:5d:fd:
         b3:d7:3b:08:66:8a:1f:0b
-----BEGIN CERTIFICATE-----
MIIGejCCBGKgAwIBAgIBADANBgkqhkiG9w0BAQUFADCBxDELMAkGA1UEBhMCREUx
DzANBgNVBAgMBkJlcmxpbjEPMA0GA1UEBwwGQmVybGluMTwwOgYDVQQKDDNEZXV0
c2NoZSBLaW5lbWF0aGVrLCBNdXNldW0gZnVlciBGaWxtIHVuZCBGZXJuc2VoZW4x
DzANBgNVBAsMBmttdC1pdDEXMBUGA1UEAwwOa210IC0gbGRhcC1wa2kxKzApBgkq
hkiG9w0BCQEWHGFkbWluQGRldXRzY2hlLWtpbmVtYXRoZWsuZGUwHhcNMTQwMzE4
MTg0MDA4WhcNMjQwMzE1MTg0MDA4WjCBvjELMAkGA1UEBhMCREUxDzANBgNVBAgM
BkJlcmxpbjE8MDoGA1UECgwzRGV1dHNjaGUgS2luZW1hdGhlaywgTXVzZXVtIGZ1
ZXIgRmlsbSB1bmQgRmVybnNlaGVuMQ8wDQYDVQQLDAZrbXQtaXQxIjAgBgNVBAMM
GXNhcmFuZG9uLmFkLmtpbmVtYXRoZWsuZGUxKzApBgkqhkiG9w0BCQEWHGFkbWlu
QGRldXRzY2hlLWtpbmVtYXRoZWsuZGUwggIiMA0GCSqGSIb3DQEBAQUAA4ICDwAw
ggIKAoICAQC3YEWMlJQj0v66K4kj8G1erMinkD017wxTJXygp7u53X9OosiGsRHu
juf91mJ7zFF+wcSur1A3p8AAsDo1hMCP4Ig0lUhDtKsxyrgvSCmDjrSO4vQklrZy
t/G70llx+6OPx9StGYKYxraWnxgFl1GlMAERjmQ8RXhIw9YtOs5ekJPGZ/j1uXtn
ZtTBVL5uQUx/81W8Q/CyVdNOu/b9L13MNqWQ6MPPD1n/MP5+e01TTH8ifULjYm2D
SyCIgaSVnxB7405lj+3onbvbljgpoTA445HWKmro4oalQfWOwxhv5vl6BpxrKQVx
3hL9rdrldipnVf1Q949NVjQLICfoVRLdQxJcex+Kez8l+b8fVqRE8Uh92qVFX3hh
Yho/sEeyQWGY0LVIGLGMXKc92oMM4mMa3TwGTjiVdW8xaJv/tlW6UUNpIyQPWrT6
dmB1L3qo2C1F7Xy/GV2Hze41BsRRJ67EzdJt7YAomIhDzYx+arSJDust6EeyfFSX
FPJT9cui7jctSqDpS55HVWCIZAdZTybu2Lu7dJ1l2x6iOAYyI5hZNmMe1ckeCvDF
LbuQyTgi8+P3Fx/QVd4DX9GHsBWyv9I52KJWDccleckEbG/KwepefP9COOQdrSN4
WUE24pk6L5W2mKUBtiOfKIuIwhbQpZt4hD2X49cz/MDfGS8W0AEOxQIDAQABo3sw
eTAJBgNVHRMEAjAAMCwGCWCGSAGG+EIBDQQfFh1PcGVuU1NMIEdlbmVyYXRlZCBD
ZXJ0aWZpY2F0ZTAdBgNVHQ4EFgQU/pRS4/StjQ960ht66EljNzlw2kYwHwYDVR0j
BBgwFoAUhCZwNa686Sl6x8GmzWk5YuDHZh8wDQYJKoZIhvcNAQEFBQADggIBAKye
sAhPvoPTrAwCj5g6zEwd27BLZgypwTYY9n8QhjWVqSp9EMUR6OyCokMlS0lZLKP6
Uw/KwXW7I8qE70mrNkY5sgrTunFiHW0l/LjoU+hIqOIOr6jTpyNXhz5flcCOwcX/
ycQUSS+5K9H1m3uHBzoqN4xFfI4yZzfy5wdU2r1yoXPiCE3eZhtGp3ffpZDOzPw3
/XB7u6ouk5qBKJlhv/dgRfER9fG1dS+GkU2HgyKKNMla2fkCgZmUe52uZozLwAjm
Kyc+/NfKIcrs3ahRT8Xh3fjuUjDaIMeZP8vIwGqyuUL3FFrDJxQZMNUtS9N0GxfH
2rV2U7Ywm4QgWh0NindpCvFSpaNqxp73y5TITDuyPO88+HnGjVIRpPIvTnsmtBtV
CgRjuLe5IaZIFdVv4G5ijS1J/07Hssn9pzazNzyxSMTsZ4wnmNys+z5t3VLgyVPg
zuLUrSpqb9b/4g4DEuyPcC6KhrmDM+yYXN6ByNLMtpEiKZau/X7rYegzUDBTBaG0
D6s91S4norhKmCBWQ7xT/qyTZR1kx3CF52/kZbHlH5h9hkOUJFkdyobG5yfoHIjg
wp7FcX8FpPPg4Ie34m0ZCnuURdvKE05uCCV0GhcwrnJNPbAkxnHclB6imv6wk6O3
XM5TmhaDHKvnkjvjw+Hhsnk1dcFd/bPXOwhmih8L
-----END CERTIFICATE-----
