Certificate:
    Data:
        Version: 3 (0x2)
        Serial Number: 1 (0x1)
    Signature Algorithm: sha1WithRSAEncryption
        Issuer: C=DE, ST=Berlin, L=Berlin, O=Deutsche Kinemathek, Museum fuer Film und Fernsehen, OU=kmt-it, CN=kmt - ldap-pki/emailAddress=admin@deutsche-kinemathek.de
        Validity
            Not Before: Mar 25 12:20:53 2014 GMT
            Not After : Mar 22 12:20:53 2024 GMT
        Subject: C=DE, ST=Berlin, O=Deutsche Kinemathek, Museum fuer Film und Fernsehen, OU=kmt-it, CN=scorsese.ad.kinemathek.de/emailAddress=admin@deutsche-kinemathek.de
        Subject Public Key Info:
            Public Key Algorithm: rsaEncryption
                Public-Key: (4096 bit)
                Modulus:
                    00:c2:72:39:ac:9d:a8:4d:32:ba:05:ea:c7:9c:51:
                    55:75:f7:c0:4c:2d:cb:e4:33:82:1d:7d:f0:8e:58:
                    cf:1f:cc:65:3f:b9:3e:61:b9:40:be:de:3e:cb:a2:
                    a2:f0:a4:d5:c1:85:8c:e2:67:d9:d9:19:1f:14:fd:
                    1a:eb:3e:61:e5:6d:a6:41:fe:da:b3:b5:d3:39:2b:
                    42:bb:a2:7f:3d:1d:58:91:02:84:99:98:46:3f:dd:
                    07:c3:df:ef:54:52:63:0f:69:49:58:83:6f:7b:5e:
                    75:43:53:6f:7a:fe:80:e2:32:31:17:b6:23:c7:9f:
                    64:e8:1a:2f:81:46:9c:42:81:4b:44:0d:2c:3c:32:
                    3d:cc:5b:90:d4:30:8f:54:88:0e:4e:ec:19:d9:db:
                    c4:33:4d:ef:8e:07:6e:e1:6b:b1:c1:ef:89:e6:9b:
                    08:1a:43:1a:79:18:7c:0b:13:91:75:d2:66:4d:6e:
                    3c:d3:f1:1e:e2:e2:95:37:4a:26:2c:e8:5b:43:da:
                    c8:93:61:c6:47:d2:13:c9:9c:39:df:30:b0:e9:a7:
                    3c:6f:42:e7:71:0e:0e:23:f4:09:41:65:fa:bf:3c:
                    62:24:0f:c5:a3:2f:cb:56:42:f8:bd:8e:6f:a2:cd:
                    08:2f:c8:00:7c:a5:14:3e:43:6e:58:41:02:44:cf:
                    5f:61:26:f3:86:81:a6:56:9d:a9:69:78:aa:63:7d:
                    9c:86:e0:b4:da:c4:bb:14:a2:c8:96:db:db:0b:b1:
                    f5:b1:a7:f1:2c:ed:7e:41:d4:74:aa:5a:70:39:15:
                    70:3a:62:92:a4:cb:21:2d:15:ad:c9:58:3f:66:54:
                    79:16:14:2b:6f:b5:f2:b6:9f:60:ef:04:7c:8b:f2:
                    96:9b:8b:95:01:49:b3:d3:b2:f7:20:5c:06:30:90:
                    0a:83:9d:ac:98:26:00:34:aa:24:ba:fa:6a:96:10:
                    46:b1:ee:e8:08:bc:70:28:1c:8f:38:1a:2d:19:57:
                    01:6e:e6:06:b6:29:63:ff:34:82:f8:d4:dc:42:6c:
                    3d:16:56:14:f1:7e:1d:60:47:ca:40:75:87:51:58:
                    19:69:f3:9f:e9:bc:af:e7:a1:c0:c7:00:3f:40:d5:
                    c8:4b:df:1e:be:72:ef:8c:c1:50:7f:8e:e1:0d:86:
                    54:7f:2d:30:29:52:91:42:4a:a1:c0:3a:fa:9b:45:
                    21:f2:d2:3c:1b:ee:66:f5:00:87:af:e6:7a:b3:ee:
                    9a:b7:08:5e:34:e6:a2:f5:fd:dc:a1:f9:6c:3a:a6:
                    c5:1a:68:93:77:81:3b:1b:7e:69:b7:a5:ff:01:12:
                    73:08:8f:b6:9f:b5:c7:59:cc:a0:99:f1:3d:d8:30:
                    02:3d:2d
                Exponent: 65537 (0x10001)
        X509v3 extensions:
            X509v3 Basic Constraints: 
                CA:FALSE
            Netscape Comment: 
                OpenSSL Generated Certificate
            X509v3 Subject Key Identifier: 
                31:EE:30:93:9E:9B:BA:F7:BC:7E:CA:AD:89:1C:E6:72:D5:C4:99:4C
            X509v3 Authority Key Identifier: 
                keyid:84:26:70:35:AE:BC:E9:29:7A:C7:C1:A6:CD:69:39:62:E0:C7:66:1F

    Signature Algorithm: sha1WithRSAEncryption
         78:04:c7:dd:be:51:71:2f:ef:69:4f:7c:17:38:99:dd:be:1f:
         e6:31:59:96:6d:29:66:03:11:74:f4:86:9e:5c:57:d2:ea:94:
         6d:09:ff:de:49:9c:4b:ea:fb:c6:5e:5c:b2:09:1c:13:b8:f6:
         83:22:cf:a6:8c:7d:a2:4c:b5:43:d4:fe:0d:03:ef:d3:b2:1c:
         ea:0f:82:01:5a:49:bd:66:e7:cf:b0:c2:52:da:1f:a7:61:33:
         3c:ed:c9:fe:02:eb:48:2f:8e:c2:92:63:3e:79:2a:cb:93:3c:
         24:48:a2:a8:15:f4:d6:2c:71:ad:07:cc:e8:5f:98:5f:3f:41:
         9d:67:a1:58:99:87:ef:35:d1:18:32:4c:7a:a5:75:42:b6:37:
         2f:52:79:3d:54:8f:cb:48:21:07:db:21:a7:d4:95:37:7b:b0:
         ca:a1:81:89:69:bd:5c:c5:3f:dc:3c:83:c9:a0:d6:2b:09:06:
         32:99:a2:9e:81:d3:19:df:75:74:ec:bd:92:61:7a:91:4d:19:
         52:99:80:fd:00:46:a2:93:af:2d:2a:61:80:96:38:c9:17:4d:
         33:84:fb:d3:59:35:1e:2a:57:ff:bf:e9:bb:49:cf:99:7f:08:
         ca:62:7d:53:4c:fe:9c:04:4d:eb:d7:88:3d:c4:1d:5f:69:61:
         5e:9e:e6:a6:90:93:21:63:9c:b1:8a:6a:31:08:5e:86:62:5e:
         58:64:33:72:a6:0c:2e:2c:bc:18:7f:96:4a:55:66:bd:13:ca:
         a2:1c:8b:27:5a:11:ce:20:9c:5e:78:0e:d6:d3:a2:40:2c:57:
         9f:cc:a0:98:e3:3a:d6:aa:65:d3:ac:7e:11:1c:a3:d1:bf:eb:
         3a:36:e0:ec:72:f1:09:5d:ef:b8:29:bb:17:d6:51:11:a2:68:
         fa:7f:4f:10:a2:e7:8f:a2:8b:ae:3c:f0:12:3b:40:2e:99:34:
         d6:6a:f3:2e:74:6a:a5:bb:10:b4:ce:09:28:83:53:2b:42:af:
         c8:ec:98:9a:84:fe:8a:7a:a9:4a:da:2e:d2:f5:c9:3a:ac:bd:
         81:7b:f9:1c:17:58:40:f4:9c:e1:b5:a4:07:18:a0:5d:af:44:
         fc:5b:ca:0a:79:6e:33:01:5b:8d:b0:34:bd:56:96:87:d4:84:
         e2:87:4a:e8:5e:d6:be:95:d7:53:1e:aa:07:86:99:ff:af:19:
         45:49:a1:d1:d3:99:98:33:fe:7d:06:0e:75:ad:53:1c:f4:df:
         6c:48:3c:df:2c:82:e3:cc:7b:cf:04:ae:7c:95:86:24:8a:86:
         5a:14:c0:38:73:94:d8:c0:4c:28:34:7d:9d:af:0b:50:8b:de:
         9d:9d:e2:f1:ea:d9:26:76
-----BEGIN CERTIFICATE-----
MIIGejCCBGKgAwIBAgIBATANBgkqhkiG9w0BAQUFADCBxDELMAkGA1UEBhMCREUx
DzANBgNVBAgMBkJlcmxpbjEPMA0GA1UEBwwGQmVybGluMTwwOgYDVQQKDDNEZXV0
c2NoZSBLaW5lbWF0aGVrLCBNdXNldW0gZnVlciBGaWxtIHVuZCBGZXJuc2VoZW4x
DzANBgNVBAsMBmttdC1pdDEXMBUGA1UEAwwOa210IC0gbGRhcC1wa2kxKzApBgkq
hkiG9w0BCQEWHGFkbWluQGRldXRzY2hlLWtpbmVtYXRoZWsuZGUwHhcNMTQwMzI1
MTIyMDUzWhcNMjQwMzIyMTIyMDUzWjCBvjELMAkGA1UEBhMCREUxDzANBgNVBAgM
BkJlcmxpbjE8MDoGA1UECgwzRGV1dHNjaGUgS2luZW1hdGhlaywgTXVzZXVtIGZ1
ZXIgRmlsbSB1bmQgRmVybnNlaGVuMQ8wDQYDVQQLDAZrbXQtaXQxIjAgBgNVBAMM
GXNjb3JzZXNlLmFkLmtpbmVtYXRoZWsuZGUxKzApBgkqhkiG9w0BCQEWHGFkbWlu
QGRldXRzY2hlLWtpbmVtYXRoZWsuZGUwggIiMA0GCSqGSIb3DQEBAQUAA4ICDwAw
ggIKAoICAQDCcjmsnahNMroF6secUVV198BMLcvkM4IdffCOWM8fzGU/uT5huUC+
3j7LoqLwpNXBhYziZ9nZGR8U/RrrPmHlbaZB/tqztdM5K0K7on89HViRAoSZmEY/
3QfD3+9UUmMPaUlYg297XnVDU296/oDiMjEXtiPHn2ToGi+BRpxCgUtEDSw8Mj3M
W5DUMI9UiA5O7BnZ28QzTe+OB27ha7HB74nmmwgaQxp5GHwLE5F10mZNbjzT8R7i
4pU3SiYs6FtD2siTYcZH0hPJnDnfMLDppzxvQudxDg4j9AlBZfq/PGIkD8WjL8tW
Qvi9jm+izQgvyAB8pRQ+Q25YQQJEz19hJvOGgaZWnalpeKpjfZyG4LTaxLsUosiW
29sLsfWxp/Es7X5B1HSqWnA5FXA6YpKkyyEtFa3JWD9mVHkWFCtvtfK2n2DvBHyL
8pabi5UBSbPTsvcgXAYwkAqDnayYJgA0qiS6+mqWEEax7ugIvHAoHI84Gi0ZVwFu
5ga2KWP/NIL41NxCbD0WVhTxfh1gR8pAdYdRWBlp85/pvK/nocDHAD9A1chL3x6+
cu+MwVB/juENhlR/LTApUpFCSqHAOvqbRSHy0jwb7mb1AIev5nqz7pq3CF405qL1
/dyh+Ww6psUaaJN3gTsbfmm3pf8BEnMIj7aftcdZzKCZ8T3YMAI9LQIDAQABo3sw
eTAJBgNVHRMEAjAAMCwGCWCGSAGG+EIBDQQfFh1PcGVuU1NMIEdlbmVyYXRlZCBD
ZXJ0aWZpY2F0ZTAdBgNVHQ4EFgQUMe4wk56buve8fsqtiRzmctXEmUwwHwYDVR0j
BBgwFoAUhCZwNa686Sl6x8GmzWk5YuDHZh8wDQYJKoZIhvcNAQEFBQADggIBAHgE
x92+UXEv72lPfBc4md2+H+YxWZZtKWYDEXT0hp5cV9LqlG0J/95JnEvq+8ZeXLIJ
HBO49oMiz6aMfaJMtUPU/g0D79OyHOoPggFaSb1m58+wwlLaH6dhMzztyf4C60gv
jsKSYz55KsuTPCRIoqgV9NYsca0HzOhfmF8/QZ1noViZh+810RgyTHqldUK2Ny9S
eT1Uj8tIIQfbIafUlTd7sMqhgYlpvVzFP9w8g8mg1isJBjKZop6B0xnfdXTsvZJh
epFNGVKZgP0ARqKTry0qYYCWOMkXTTOE+9NZNR4qV/+/6btJz5l/CMpifVNM/pwE
TevXiD3EHV9pYV6e5qaQkyFjnLGKajEIXoZiXlhkM3KmDC4svBh/lkpVZr0TyqIc
iydaEc4gnF54DtbTokAsV5/MoJjjOtaqZdOsfhEco9G/6zo24Oxy8Qld77gpuxfW
URGiaPp/TxCi54+ii6488BI7QC6ZNNZq8y50aqW7ELTOCSiDUytCr8jsmJqE/op6
qUraLtL1yTqsvYF7+RwXWED0nOG1pAcYoF2vRPxbygp5bjMBW42wNL1WlofUhOKH
Suhe1r6V11MeqgeGmf+vGUVJodHTmZgz/n0GDnWtUxz032xIPN8sguPMe88ErnyV
hiSKhloUwDhzlNjATCg0fZ2vC1CL3p2d4vHq2SZ2
-----END CERTIFICATE-----
